; Function Attrs: mustprogress nounwind uwtable
define internal void @"_ZN4llvm12function_refIFvvEE11callback_fnIZNKS_2gi18InstructionPattern5printERNS_11raw_ostreamEbE3$_0EEvl"(i64 noundef %0) #0 align 2 {
  %2 = inttoptr i64 %0 to ptr
  %3 = getelementptr inbounds nuw i8, ptr %2, i64 8
  %4 = load ptr, ptr %3, align 8
  %5 = load ptr, ptr %2, align 8
  %6 = load ptr, ptr %4, align 8
  %7 = getelementptr inbounds i8, ptr %6, i64 56
  %8 = load ptr, ptr %7, align 8
  %9 = tail call { ptr, i64 } %8(ptr noundef nonnull align 8 dereferenceable(304) %4) #25
  %10 = extractvalue { ptr, i64 } %9, 0
  %11 = extractvalue { ptr, i64 } %9, 1
  %12 = getelementptr inbounds nuw i8, ptr %5, i64 24
  %13 = load ptr, ptr %12, align 8
  %14 = getelementptr inbounds nuw i8, ptr %5, i64 32
  %15 = load ptr, ptr %14, align 8
  %16 = ptrtoint ptr %13 to i64
  %17 = ptrtoint ptr %15 to i64
  %18 = sub i64 %16, %17
  %19 = icmp ugt i64 %11, %18
  br i1 %19, label %20, label %22

20:                                               ; preds = %1
  %21 = tail call noundef nonnull align 8 dereferenceable(48) ptr @_ZN4llvm11raw_ostream5writeEPKcm(ptr noundef nonnull align 8 dereferenceable(48) %5, ptr noundef %10, i64 noundef %11) #25
  %.phi.trans.insert.i = getelementptr inbounds nuw i8, ptr %21, i64 32
  %.pre.i = load ptr, ptr %.phi.trans.insert.i, align 8
  br label %_ZN4llvm11raw_ostreamlsENS_9StringRefE.exit.i

22:                                               ; preds = %1
  %.not.i.i = icmp eq i64 %11, 0
  br i1 %.not.i.i, label %_ZN4llvm11raw_ostreamlsENS_9StringRefE.exit.i, label %23

23:                                               ; preds = %22
  tail call void @llvm.memcpy.p0.p0.i64(ptr align 1 %15, ptr align 1 %10, i64 %11, i1 false)
  %24 = load ptr, ptr %14, align 8
  %25 = getelementptr inbounds i8, ptr %24, i64 %11
  store ptr %25, ptr %14, align 8
  br label %_ZN4llvm11raw_ostreamlsENS_9StringRefE.exit.i

_ZN4llvm11raw_ostreamlsENS_9StringRefE.exit.i:    ; preds = %23, %22, %20
  %26 = phi ptr [ %.pre.i, %20 ], [ %25, %23 ], [ %15, %22 ]
  %.0.i.i = phi ptr [ %21, %20 ], [ %5, %23 ], [ %5, %22 ]
  %27 = getelementptr inbounds nuw i8, ptr %.0.i.i, i64 24
  %28 = load ptr, ptr %27, align 8
  %29 = ptrtoint ptr %28 to i64
  %30 = ptrtoint ptr %26 to i64
  %31 = sub i64 %29, %30
  %32 = icmp ult i64 %31, 11
  br i1 %32, label %33, label %35

33:                                               ; preds = %_ZN4llvm11raw_ostreamlsENS_9StringRefE.exit.i
  %34 = tail call noundef nonnull align 8 dereferenceable(48) ptr @_ZN4llvm11raw_ostream5writeEPKcm(ptr noundef nonnull align 8 dereferenceable(48) %.0.i.i, ptr noundef nonnull @.str.129, i64 noundef 11) #25
  br label %_ZN4llvm11raw_ostreamlsEPKc.exit.i

35:                                               ; preds = %_ZN4llvm11raw_ostreamlsENS_9StringRefE.exit.i
  %36 = getelementptr inbounds nuw i8, ptr %.0.i.i, i64 32
  tail call void @llvm.memcpy.p0.p0.i64(ptr noundef nonnull align 1 dereferenceable(11) %26, ptr noundef nonnull align 1 dereferenceable(11) @.str.129, i64 11, i1 false)
  %37 = load ptr, ptr %36, align 8
  %38 = getelementptr inbounds i8, ptr %37, i64 11
  store ptr %38, ptr %36, align 8
  br label %_ZN4llvm11raw_ostreamlsEPKc.exit.i

_ZN4llvm11raw_ostreamlsEPKc.exit.i:               ; preds = %35, %33
  %39 = getelementptr inbounds nuw i8, ptr %4, i64 32
  %40 = load ptr, ptr %39, align 8
  %41 = tail call noundef i64 @_ZNK4llvm15SmallVectorBaseIjE4sizeEv(ptr noundef nonnull align 8 dereferenceable(16) %39) #25
  %42 = getelementptr inbounds %"class.llvm::gi::InstructionOperand", ptr %40, i64 %41
  %.not20.i = icmp eq i64 %41, 0
  br i1 %.not20.i, label %._crit_edge.i, label %.lr.ph.i

.lr.ph.i:                                         ; preds = %_ZN4llvm11raw_ostreamlsEPKc.exit.i, %_ZN4llvm11raw_ostreamlsENS_9StringRefE.exit12.i
  %.023.i = phi ptr [ %59, %_ZN4llvm11raw_ostreamlsENS_9StringRefE.exit12.i ], [ %40, %_ZN4llvm11raw_ostreamlsEPKc.exit.i ]
  %.sroa.019.022.i = phi ptr [ @.str.55, %_ZN4llvm11raw_ostreamlsENS_9StringRefE.exit12.i ], [ null, %_ZN4llvm11raw_ostreamlsEPKc.exit.i ]
  %.not.i10.i = phi i1 [ false, %_ZN4llvm11raw_ostreamlsENS_9StringRefE.exit12.i ], [ true, %_ZN4llvm11raw_ostreamlsEPKc.exit.i ]
  %.sroa.3.021.i = phi i64 [ 2, %_ZN4llvm11raw_ostreamlsENS_9StringRefE.exit12.i ], [ 0, %_ZN4llvm11raw_ostreamlsEPKc.exit.i ]
  %43 = load ptr, ptr %2, align 8
  %44 = getelementptr inbounds nuw i8, ptr %43, i64 24
  %45 = load ptr, ptr %44, align 8
  %46 = getelementptr inbounds nuw i8, ptr %43, i64 32
  %47 = load ptr, ptr %46, align 8
  %48 = ptrtoint ptr %45 to i64
  %49 = ptrtoint ptr %47 to i64
  %50 = sub i64 %48, %49
  %51 = icmp ugt i64 %.sroa.3.021.i, %50
  br i1 %51, label %52, label %54

52:                                               ; preds = %.lr.ph.i
  %53 = tail call noundef nonnull align 8 dereferenceable(48) ptr @_ZN4llvm11raw_ostream5writeEPKcm(ptr noundef nonnull align 8 dereferenceable(48) %43, ptr noundef %.sroa.019.022.i, i64 noundef %.sroa.3.021.i) #25
  br label %_ZN4llvm11raw_ostreamlsENS_9StringRefE.exit12.i

54:                                               ; preds = %.lr.ph.i
  br i1 %.not.i10.i, label %_ZN4llvm11raw_ostreamlsENS_9StringRefE.exit12.i, label %55

55:                                               ; preds = %54
  tail call void @llvm.memcpy.p0.p0.i64(ptr align 1 %47, ptr align 1 %.sroa.019.022.i, i64 %.sroa.3.021.i, i1 false)
  %56 = load ptr, ptr %46, align 8
  %57 = getelementptr inbounds i8, ptr %56, i64 %.sroa.3.021.i
  store ptr %57, ptr %46, align 8
  br label %_ZN4llvm11raw_ostreamlsENS_9StringRefE.exit12.i

_ZN4llvm11raw_ostreamlsENS_9StringRefE.exit12.i:  ; preds = %55, %54, %52
  %58 = load ptr, ptr %2, align 8
  tail call void @_ZNK4llvm2gi18InstructionOperand5printERNS_11raw_ostreamE(ptr noundef nonnull align 8 dereferenceable(57) %.023.i, ptr noundef nonnull align 8 dereferenceable(48) %58)
  %59 = getelementptr inbounds i8, ptr %.023.i, i64 64
  %.not.i = icmp eq ptr %59, %42
  br i1 %.not.i, label %._crit_edge.i, label %.lr.ph.i

._crit_edge.i:                                    ; preds = %_ZN4llvm11raw_ostreamlsENS_9StringRefE.exit12.i, %_ZN4llvm11raw_ostreamlsEPKc.exit.i
  %60 = load ptr, ptr %2, align 8
  %61 = getelementptr inbounds nuw i8, ptr %60, i64 24
  %62 = load ptr, ptr %61, align 8
  %63 = getelementptr inbounds nuw i8, ptr %60, i64 32
  %64 = load ptr, ptr %63, align 8
  %65 = icmp eq ptr %62, %64
  br i1 %65, label %66, label %68

66:                                               ; preds = %._crit_edge.i
  %67 = tail call noundef nonnull align 8 dereferenceable(48) ptr @_ZN4llvm11raw_ostream5writeEPKcm(ptr noundef nonnull align 8 dereferenceable(48) %60, ptr noundef nonnull @.str.124, i64 noundef 1) #25
  br label %"_ZZNK4llvm2gi18InstructionPattern5printERNS_11raw_ostreamEbENK3$_0clEv.exit"

68:                                               ; preds = %._crit_edge.i
  store i8 93, ptr %64, align 1
  %69 = load ptr, ptr %63, align 8
  %70 = getelementptr inbounds i8, ptr %69, i64 1
  store ptr %70, ptr %63, align 8
  br label %"_ZZNK4llvm2gi18InstructionPattern5printERNS_11raw_ostreamEbENK3$_0clEv.exit"

"_ZZNK4llvm2gi18InstructionPattern5printERNS_11raw_ostreamEbENK3$_0clEv.exit": ; preds = %66, %68
  %71 = load ptr, ptr %2, align 8
  %72 = load ptr, ptr %4, align 8
  %73 = getelementptr inbounds i8, ptr %72, i64 72
  %74 = load ptr, ptr %73, align 8
  tail call void %74(ptr noundef nonnull align 8 dereferenceable(304) %4, ptr noundef nonnull align 8 dereferenceable(48) %71) #25
  ret void
}